target datalayout = "e-m:e-p270:32:32-p271:32:32-p272:64:64-i64:64-i128:128-f80:128-n8:16:32:64-S128"
target triple = "x86_64-unknown-linux-gnu"

; Function Attrs: mustprogress nounwind uwtable
define noundef i32 @_ZN6icu_7515Normalizer2Impl7combineEPKti(ptr noundef %list, i32 noundef %trail) #2 align 2 {
entry:
  %retval = alloca i32, align 4
  %list.addr = alloca ptr, align 8
  %trail.addr = alloca i32, align 4
  %key1 = alloca i16, align 2
  %firstUnit = alloca i16, align 2
  %key2 = alloca i16, align 2
  %secondUnit = alloca i16, align 2
  store ptr %list, ptr %list.addr, align 8
  store i32 %trail, ptr %trail.addr, align 4
  %0 = load i32, ptr %trail.addr, align 4
  %cmp = icmp slt i32 %0, 13312
  br i1 %cmp, label %if.then, label %if.else19

if.then:                                          ; preds = %entry
  %1 = load i32, ptr %trail.addr, align 4
  %shl = shl i32 %1, 1
  %conv = trunc i32 %shl to i16
  store i16 %conv, ptr %key1, align 2
  br label %while.cond

while.cond:                                       ; preds = %while.body, %if.then
  %2 = load i16, ptr %key1, align 2
  %conv1 = zext i16 %2 to i32
  %3 = load ptr, ptr %list.addr, align 8
  %4 = load i16, ptr %3, align 2
  store i16 %4, ptr %firstUnit, align 2
  %conv2 = zext i16 %4 to i32
  %cmp3 = icmp sgt i32 %conv1, %conv2
  br i1 %cmp3, label %while.body, label %while.end

while.body:                                       ; preds = %while.cond
  %5 = load i16, ptr %firstUnit, align 2
  %conv4 = zext i16 %5 to i32
  %and = and i32 %conv4, 1
  %add = add nsw i32 2, %and
  %6 = load ptr, ptr %list.addr, align 8
  %idx.ext = sext i32 %add to i64
  %add.ptr = getelementptr inbounds i16, ptr %6, i64 %idx.ext
  store ptr %add.ptr, ptr %list.addr, align 8
  br label %while.cond, !llvm.loop !24

while.end:                                        ; preds = %while.cond
  %7 = load i16, ptr %key1, align 2
  %conv5 = zext i16 %7 to i32
  %8 = load i16, ptr %firstUnit, align 2
  %conv6 = zext i16 %8 to i32
  %and7 = and i32 %conv6, 32766
  %cmp8 = icmp eq i32 %conv5, %and7
  br i1 %cmp8, label %if.then9, label %if.end

if.then9:                                         ; preds = %while.end
  %9 = load i16, ptr %firstUnit, align 2
  %conv10 = zext i16 %9 to i32
  %and11 = and i32 %conv10, 1
  %tobool = icmp ne i32 %and11, 0
  br i1 %tobool, label %if.then12, label %if.else

if.then12:                                        ; preds = %if.then9
  %10 = load ptr, ptr %list.addr, align 8
  %arrayidx = getelementptr inbounds i16, ptr %10, i64 1
  %11 = load i16, ptr %arrayidx, align 2
  %conv13 = zext i16 %11 to i32
  %shl14 = shl i32 %conv13, 16
  %12 = load ptr, ptr %list.addr, align 8
  %arrayidx15 = getelementptr inbounds i16, ptr %12, i64 2
  %13 = load i16, ptr %arrayidx15, align 2
  %conv16 = zext i16 %13 to i32
  %or = or i32 %shl14, %conv16
  store i32 %or, ptr %retval, align 4
  br label %return

if.else:                                          ; preds = %if.then9
  %14 = load ptr, ptr %list.addr, align 8
  %arrayidx17 = getelementptr inbounds i16, ptr %14, i64 1
  %15 = load i16, ptr %arrayidx17, align 2
  %conv18 = zext i16 %15 to i32
  store i32 %conv18, ptr %retval, align 4
  br label %return

if.end:                                           ; preds = %while.end
  br label %if.end69

if.else19:                                        ; preds = %entry
  %16 = load i32, ptr %trail.addr, align 4
  %shr = ashr i32 %16, 9
  %and20 = and i32 %shr, -2
  %add21 = add nsw i32 13312, %and20
  %conv22 = trunc i32 %add21 to i16
  store i16 %conv22, ptr %key1, align 2
  %17 = load i32, ptr %trail.addr, align 4
  %shl23 = shl i32 %17, 6
  %conv24 = trunc i32 %shl23 to i16
  store i16 %conv24, ptr %key2, align 2
  br label %for.cond

for.cond:                                         ; preds = %if.end68, %if.else19
  %18 = load i16, ptr %key1, align 2
  %conv25 = zext i16 %18 to i32
  %19 = load ptr, ptr %list.addr, align 8
  %20 = load i16, ptr %19, align 2
  store i16 %20, ptr %firstUnit, align 2
  %conv26 = zext i16 %20 to i32
  %cmp27 = icmp sgt i32 %conv25, %conv26
  br i1 %cmp27, label %if.then28, label %if.else34

if.then28:                                        ; preds = %for.cond
  %21 = load i16, ptr %firstUnit, align 2
  %conv29 = zext i16 %21 to i32
  %and30 = and i32 %conv29, 1
  %add31 = add nsw i32 2, %and30
  %22 = load ptr, ptr %list.addr, align 8
  %idx.ext32 = sext i32 %add31 to i64
  %add.ptr33 = getelementptr inbounds i16, ptr %22, i64 %idx.ext32
  store ptr %add.ptr33, ptr %list.addr, align 8
  br label %if.end68

if.else34:                                        ; preds = %for.cond
  %23 = load i16, ptr %key1, align 2
  %conv35 = zext i16 %23 to i32
  %24 = load i16, ptr %firstUnit, align 2
  %conv36 = zext i16 %24 to i32
  %and37 = and i32 %conv36, 32766
  %cmp38 = icmp eq i32 %conv35, %and37
  br i1 %cmp38, label %if.then39, label %if.else66

if.then39:                                        ; preds = %if.else34
  %25 = load i16, ptr %key2, align 2
  %conv40 = zext i16 %25 to i32
  %26 = load ptr, ptr %list.addr, align 8
  %arrayidx41 = getelementptr inbounds i16, ptr %26, i64 1
  %27 = load i16, ptr %arrayidx41, align 2
  store i16 %27, ptr %secondUnit, align 2
  %conv42 = zext i16 %27 to i32
  %cmp43 = icmp sgt i32 %conv40, %conv42
  br i1 %cmp43, label %if.then44, label %if.else52

if.then44:                                        ; preds = %if.then39
  %28 = load i16, ptr %firstUnit, align 2
  %conv45 = zext i16 %28 to i32
  %and46 = and i32 %conv45, 32768
  %tobool47 = icmp ne i32 %and46, 0
  br i1 %tobool47, label %if.then48, label %if.else49

if.then48:                                        ; preds = %if.then44
  br label %for.end

if.else49:                                        ; preds = %if.then44
  %29 = load ptr, ptr %list.addr, align 8
  %add.ptr50 = getelementptr inbounds i16, ptr %29, i64 3
  store ptr %add.ptr50, ptr %list.addr, align 8
  br label %if.end51

if.end51:                                         ; preds = %if.else49
  br label %if.end65

if.else52:                                        ; preds = %if.then39
  %30 = load i16, ptr %key2, align 2
  %conv53 = zext i16 %30 to i32
  %31 = load i16, ptr %secondUnit, align 2
  %conv54 = zext i16 %31 to i32
  %and55 = and i32 %conv54, 65472
  %cmp56 = icmp eq i32 %conv53, %and55
  br i1 %cmp56, label %if.then57, label %if.else64

if.then57:                                        ; preds = %if.else52
  %32 = load i16, ptr %secondUnit, align 2
  %conv58 = zext i16 %32 to i32
  %and59 = and i32 %conv58, -65473
  %shl60 = shl i32 %and59, 16
  %33 = load ptr, ptr %list.addr, align 8
  %arrayidx61 = getelementptr inbounds i16, ptr %33, i64 2
  %34 = load i16, ptr %arrayidx61, align 2
  %conv62 = zext i16 %34 to i32
  %or63 = or i32 %shl60, %conv62
  store i32 %or63, ptr %retval, align 4
  br label %return

if.else64:                                        ; preds = %if.else52
  br label %for.end

if.end65:                                         ; preds = %if.end51
  br label %if.end67

if.else66:                                        ; preds = %if.else34
  br label %for.end

if.end67:                                         ; preds = %if.end65
  br label %if.end68

if.end68:                                         ; preds = %if.end67, %if.then28
  br label %for.cond, !llvm.loop !25

for.end:                                          ; preds = %if.else66, %if.else64, %if.then48
  br label %if.end69

if.end69:                                         ; preds = %for.end, %if.end
  store i32 -1, ptr %retval, align 4
  br label %return

return:                                           ; preds = %if.end69, %if.then57, %if.else, %if.then12
  %35 = load i32, ptr %retval, align 4
  ret i32 %35
}