; Function Attrs: mustprogress nofree norecurse nosync nounwind willreturn memory(read, inaccessiblemem: none) uwtable
define noundef i32 @_ZN6icu_7515Normalizer2Impl7combineEPKti(ptr nocapture noundef readonly %list, i32 noundef %trail) local_unnamed_addr #2 align 2 {
entry:
  %cmp = icmp slt i32 %trail, 13312
  br i1 %cmp, label %if.then, label %if.else19

if.then:                                          ; preds = %entry
  %conv = shl i32 %trail, 1
  %conv1 = and i32 %conv, 65534
  %0 = load i16, ptr %list, align 2
  %conv224 = zext i16 %0 to i32
  %cmp325 = icmp ugt i32 %conv1, %conv224
  br i1 %cmp325, label %while.body, label %while.end

while.body:                                       ; preds = %if.then, %while.body
  %conv227 = phi i32 [ %conv2, %while.body ], [ %conv224, %if.then ]
  %list.addr.026 = phi ptr [ %add.ptr, %while.body ], [ %list, %if.then ]
  %and = and i32 %conv227, 1
  %add = or disjoint i32 %and, 2
  %idx.ext = zext nneg i32 %add to i64
  %add.ptr = getelementptr inbounds i16, ptr %list.addr.026, i64 %idx.ext
  %1 = load i16, ptr %add.ptr, align 2
  %conv2 = zext i16 %1 to i32
  %cmp3 = icmp ugt i32 %conv1, %conv2
  br i1 %cmp3, label %while.body, label %while.end, !llvm.loop !26

while.end:                                        ; preds = %while.body, %if.then
  %list.addr.0.lcssa = phi ptr [ %list, %if.then ], [ %add.ptr, %while.body ]
  %conv2.lcssa = phi i32 [ %conv224, %if.then ], [ %conv2, %while.body ]
  %and7 = and i32 %conv2.lcssa, 32766
  %cmp8 = icmp eq i32 %conv1, %and7
  br i1 %cmp8, label %if.then9, label %return

if.then9:                                         ; preds = %while.end
  %and11 = and i32 %conv2.lcssa, 1
  %tobool.not = icmp eq i32 %and11, 0
  %arrayidx17 = getelementptr inbounds i8, ptr %list.addr.0.lcssa, i64 2
  %2 = load i16, ptr %arrayidx17, align 2
  %conv18 = zext i16 %2 to i32
  br i1 %tobool.not, label %return, label %if.then12

if.then12:                                        ; preds = %if.then9
  %shl14 = shl nuw i32 %conv18, 16
  br label %return.sink.split

if.else19:                                        ; preds = %entry
  %shr = lshr i32 %trail, 9
  %conv22 = add nuw nsw i32 %shr, 13312
  %conv24 = shl i32 %trail, 6
  %conv25 = and i32 %conv22, 65534
  %conv40 = and i32 %conv24, 65472
  br label %for.cond

for.cond:                                         ; preds = %for.cond.backedge, %if.else19
  %list.addr.1 = phi ptr [ %list, %if.else19 ], [ %list.addr.1.be, %for.cond.backedge ]
  %3 = load i16, ptr %list.addr.1, align 2
  %conv26 = zext i16 %3 to i32
  %cmp27 = icmp ugt i32 %conv25, %conv26
  br i1 %cmp27, label %if.then28, label %if.else34

if.then28:                                        ; preds = %for.cond
  %and30 = and i32 %conv26, 1
  %add31 = or disjoint i32 %and30, 2
  %idx.ext32 = zext nneg i32 %add31 to i64
  %add.ptr33 = getelementptr inbounds i16, ptr %list.addr.1, i64 %idx.ext32
  br label %for.cond.backedge

if.else34:                                        ; preds = %for.cond
  %and37 = and i32 %conv26, 32766
  %cmp38 = icmp eq i32 %conv25, %and37
  br i1 %cmp38, label %if.then39, label %return

if.then39:                                        ; preds = %if.else34
  %arrayidx41 = getelementptr inbounds i8, ptr %list.addr.1, i64 2
  %4 = load i16, ptr %arrayidx41, align 2
  %conv42 = zext i16 %4 to i32
  %cmp43 = icmp ugt i32 %conv40, %conv42
  br i1 %cmp43, label %if.then44, label %if.else52

if.then44:                                        ; preds = %if.then39
  %tobool47.not = icmp sgt i16 %3, -1
  br i1 %tobool47.not, label %if.else49, label %return

if.else49:                                        ; preds = %if.then44
  %add.ptr50 = getelementptr inbounds i8, ptr %list.addr.1, i64 6
  br label %for.cond.backedge

for.cond.backedge:                                ; preds = %if.else49, %if.then28
  %list.addr.1.be = phi ptr [ %add.ptr33, %if.then28 ], [ %add.ptr50, %if.else49 ]
  br label %for.cond, !llvm.loop !27

if.else52:                                        ; preds = %if.then39
  %and55 = and i32 %conv42, 65472
  %cmp56 = icmp eq i32 %conv40, %and55
  br i1 %cmp56, label %if.then57, label %return

if.then57:                                        ; preds = %if.else52
  %and59 = shl nuw i32 %conv42, 16
  %shl60 = and i32 %and59, 4128768
  br label %return.sink.split

return.sink.split:                                ; preds = %if.then12, %if.then57
  %list.addr.1.lcssa33.sink = phi ptr [ %list.addr.1, %if.then57 ], [ %list.addr.0.lcssa, %if.then12 ]
  %shl60.sink = phi i32 [ %shl60, %if.then57 ], [ %shl14, %if.then12 ]
  %arrayidx61 = getelementptr inbounds i8, ptr %list.addr.1.lcssa33.sink, i64 4
  %5 = load i16, ptr %arrayidx61, align 2
  %conv62 = zext i16 %5 to i32
  %or63 = or disjoint i32 %shl60.sink, %conv62
  br label %return

return:                                           ; preds = %if.else34, %if.then44, %return.sink.split, %if.then9, %while.end, %if.else52
  %retval.0 = phi i32 [ -1, %if.else52 ], [ -1, %while.end ], [ %conv18, %if.then9 ], [ %or63, %return.sink.split ], [ -1, %if.then44 ], [ -1, %if.else34 ]
  ret i32 %retval.0
}